target datalayout = "e-m:e-p270:32:32-p271:32:32-p272:64:64-i64:64-i128:128-f80:128-n8:16:32:64-S128"
target triple = "x86_64-pc-linux-gnu"

; Function Attrs: null_pointer_is_valid sspstrong uwtable
define hidden void @tplt_skip_header(ptr noundef %0, ptr noundef %1) #0 {
  %3 = alloca ptr, align 8
  %4 = alloca ptr, align 8
  %5 = alloca [1000 x i8], align 16
  store ptr %0, ptr %3, align 8
  store ptr %1, ptr %4, align 8
  call void @llvm.lifetime.start.p0(i64 1000, ptr %5) #18
  br label %6

6:                                                ; preds = %25, %2
  %7 = getelementptr inbounds [1000 x i8], ptr %5, i64 0, i64 0
  %8 = load ptr, ptr %3, align 8
  %9 = call ptr @fgets(ptr noundef %7, i32 noundef 1000, ptr noundef %8)
  %10 = icmp ne ptr %9, null
  br i1 %10, label %11, label %23

11:                                               ; preds = %6
  %12 = getelementptr [1000 x i8], ptr %5, i64 0, i64 0
  %13 = load i8, ptr %12, align 16
  %14 = sext i8 %13 to i32
  %15 = icmp ne i32 %14, 37
  br i1 %15, label %21, label %16

16:                                               ; preds = %11
  %17 = getelementptr [1000 x i8], ptr %5, i64 0, i64 1
  %18 = load i8, ptr %17, align 1
  %19 = sext i8 %18 to i32
  %20 = icmp ne i32 %19, 37
  br label %21

21:                                               ; preds = %16, %11
  %22 = phi i1 [ true, %11 ], [ %20, %16 ]
  br label %23

23:                                               ; preds = %21, %6
  %24 = phi i1 [ false, %6 ], [ %22, %21 ]
  br i1 %24, label %25, label %29

25:                                               ; preds = %23
  %26 = load ptr, ptr %4, align 8
  %27 = load i32, ptr %26, align 4
  %28 = add i32 %27, 1
  store i32 %28, ptr %26, align 4
  br label %6, !llvm.loop !207

29:                                               ; preds = %23
  call void @llvm.lifetime.end.p0(i64 1000, ptr %5) #18
  ret void
}