; Function Attrs: nofree nounwind null_pointer_is_valid sspstrong uwtable
define hidden void @tplt_skip_header(ptr noundef captures(none) %0, ptr noundef captures(none) %1) local_unnamed_addr #18 {
  %3 = alloca [1000 x i8], align 16
  call void @llvm.lifetime.start.p0(i64 1000, ptr nonnull %3) #42
  %4 = call ptr @fgets(ptr noundef nonnull %3, i32 noundef 1000, ptr noundef %0)
  %.not2 = icmp eq ptr %4, null
  br i1 %.not2, label %.critedge, label %.lr.ph

.lr.ph:                                           ; preds = %2
  %5 = getelementptr inbounds nuw i8, ptr %3, i64 1
  br label %6

6:                                                ; preds = %.lr.ph, %12
  %7 = load i8, ptr %3, align 16
  %8 = icmp ne i8 %7, 37
  %9 = load i8, ptr %5, align 1
  %10 = icmp ne i8 %9, 37
  %11 = select i1 %8, i1 true, i1 %10
  br i1 %11, label %12, label %.critedge

12:                                               ; preds = %6
  %13 = load i32, ptr %1, align 4
  %14 = add i32 %13, 1
  store i32 %14, ptr %1, align 4
  %15 = call ptr @fgets(ptr noundef nonnull %3, i32 noundef 1000, ptr noundef %0)
  %.not = icmp eq ptr %15, null
  br i1 %.not, label %.critedge, label %6, !llvm.loop !163

.critedge:                                        ; preds = %6, %12, %2
  call void @llvm.lifetime.end.p0(i64 1000, ptr nonnull %3) #42
  ret void
}